target datalayout = "e-m:e-p270:32:32-p271:32:32-p272:64:64-i64:64-i128:128-f80:128-n8:16:32:64-S128"
target triple = "x86_64-pc-linux-gnu"

%struct.GCRef = type { i64 }
%struct.MRef = type { i64 }
%struct.SBufExt = type { ptr, ptr, ptr, %struct.MRef, %union.anon.2, ptr, %struct.GCRef, %struct.GCRef, i32 }
%union.anon.2 = type { %struct.GCRef }

; Function Attrs: alwaysinline nounwind uwtable
define internal ptr @serialize_ru124(ptr noundef %0, ptr noundef %1, ptr noundef %2) #6 {
  %4 = alloca ptr, align 8
  %5 = alloca ptr, align 8
  %6 = alloca ptr, align 8
  %7 = alloca ptr, align 8
  %8 = alloca i32, align 4
  store ptr %0, ptr %5, align 8, !tbaa !32
  store ptr %1, ptr %6, align 8, !tbaa !32
  store ptr %2, ptr %7, align 8, !tbaa !81
  %9 = load ptr, ptr %5, align 8, !tbaa !32
  %10 = load ptr, ptr %6, align 8, !tbaa !32
  %11 = icmp ult ptr %9, %10
  %12 = xor i1 %11, true
  %13 = xor i1 %12, true
  %14 = zext i1 %13 to i32
  %15 = sext i32 %14 to i64
  %16 = call i64 @llvm.expect.i64(i64 %15, i64 1)
  %17 = icmp ne i64 %16, 0
  br i1 %17, label %18, label %41

18:                                               ; preds = %3
  call void @llvm.lifetime.start.p0(i64 4, ptr %8) #10
  %19 = load ptr, ptr %5, align 8, !tbaa !32
  %20 = load i8, ptr %19, align 1, !tbaa !22
  %21 = zext i8 %20 to i32
  store i32 %21, ptr %8, align 4, !tbaa !17
  %22 = load ptr, ptr %5, align 8, !tbaa !32
  %23 = getelementptr inbounds nuw i8, ptr %22, i32 1
  store ptr %23, ptr %5, align 8, !tbaa !32
  %24 = load i32, ptr %8, align 4, !tbaa !17
  %25 = load ptr, ptr %7, align 8, !tbaa !81
  store i32 %24, ptr %25, align 4, !tbaa !17
  %26 = load i32, ptr %8, align 4, !tbaa !17
  %27 = icmp uge i32 %26, 224
  %28 = xor i1 %27, true
  %29 = xor i1 %28, true
  %30 = zext i1 %29 to i32
  %31 = sext i32 %30 to i64
  %32 = call i64 @llvm.expect.i64(i64 %31, i64 0)
  %33 = icmp ne i64 %32, 0
  br i1 %33, label %34, label %39

34:                                               ; preds = %18
  %35 = load ptr, ptr %5, align 8, !tbaa !32
  %36 = load ptr, ptr %6, align 8, !tbaa !32
  %37 = load ptr, ptr %7, align 8, !tbaa !81
  %38 = call ptr @serialize_ru124_(ptr noundef %35, ptr noundef %36, ptr noundef %37)
  store ptr %38, ptr %5, align 8, !tbaa !32
  br label %39

39:                                               ; preds = %34, %18
  %40 = load ptr, ptr %5, align 8, !tbaa !32
  store ptr %40, ptr %4, align 8
  call void @llvm.lifetime.end.p0(i64 4, ptr %8) #10
  br label %42

41:                                               ; preds = %3
  store ptr null, ptr %4, align 8
  br label %42

42:                                               ; preds = %41, %39
  %43 = load ptr, ptr %4, align 8
  ret ptr %43
}

; Function Attrs: nounwind uwtable
define hidden i32 @lj_serialize_peektype(ptr noundef %0) #0 {
  %2 = alloca i32, align 4
  %3 = alloca ptr, align 8
  %4 = alloca i32, align 4
  %5 = alloca i32, align 4
  store ptr %0, ptr %3, align 8, !tbaa !26
  call void @llvm.lifetime.start.p0(i64 4, ptr %4) #10
  %6 = load ptr, ptr %3, align 8, !tbaa !26
  %7 = getelementptr inbounds nuw %struct.SBufExt, ptr %6, i32 0, i32 5
  %8 = load ptr, ptr %7, align 8, !tbaa !62
  %9 = load ptr, ptr %3, align 8, !tbaa !26
  %10 = getelementptr inbounds nuw %struct.SBufExt, ptr %9, i32 0, i32 0
  %11 = load ptr, ptr %10, align 8, !tbaa !31
  %12 = call ptr @serialize_ru124(ptr noundef %8, ptr noundef %11, ptr noundef %4)
  %13 = icmp ne ptr %12, null
  br i1 %13, label %14, label %26

14:                                               ; preds = %1
  %15 = load i32, ptr %4, align 4, !tbaa !17
  switch i32 %15, label %25 [
    i32 0, label %16
    i32 1, label %17
    i32 2, label %18
    i32 3, label %19
    i32 4, label %19
    i32 5, label %19
    i32 6, label %20
    i32 7, label %21
    i32 8, label %22
    i32 9, label %22
    i32 10, label %22
    i32 11, label %22
    i32 12, label %22
    i32 13, label %22
    i32 14, label %22
    i32 16, label %23
    i32 17, label %23
    i32 18, label %23
    i32 15, label %24
  ]

16:                                               ; preds = %14
  store i32 0, ptr %2, align 4
  store i32 1, ptr %5, align 4
  br label %27

17:                                               ; preds = %14
  store i32 1, ptr %2, align 4
  store i32 1, ptr %5, align 4
  br label %27

18:                                               ; preds = %14
  store i32 2, ptr %2, align 4
  store i32 1, ptr %5, align 4
  br label %27

19:                                               ; preds = %14, %14, %14
  store i32 3, ptr %2, align 4
  store i32 1, ptr %5, align 4
  br label %27

20:                                               ; preds = %14
  store i32 14, ptr %2, align 4
  store i32 1, ptr %5, align 4
  br label %27

21:                                               ; preds = %14
  store i32 14, ptr %2, align 4
  store i32 1, ptr %5, align 4
  br label %27

22:                                               ; preds = %14, %14, %14, %14, %14, %14, %14
  store i32 11, ptr %2, align 4
  store i32 1, ptr %5, align 4
  br label %27

23:                                               ; preds = %14, %14, %14
  store i32 10, ptr %2, align 4
  store i32 1, ptr %5, align 4
  br label %27

24:                                               ; preds = %14
  br label %25

25:                                               ; preds = %14, %24
  store i32 4, ptr %2, align 4
  store i32 1, ptr %5, align 4
  br label %27

26:                                               ; preds = %1
  store i32 0, ptr %2, align 4
  store i32 1, ptr %5, align 4
  br label %27

27:                                               ; preds = %26, %25, %23, %22, %21, %20, %19, %18, %17, %16
  call void @llvm.lifetime.end.p0(i64 4, ptr %4) #10
  %28 = load i32, ptr %2, align 4
  ret i32 %28
}