; Function Attrs: mustprogress nofree norecurse nosync nounwind willreturn memory(readwrite, inaccessiblemem: none) uwtable
define hidden range(i32 0, 15) i32 @lj_serialize_peektype(ptr noundef readonly captures(none) %0) local_unnamed_addr #6 {
  %2 = alloca i32, align 4
  call void @llvm.lifetime.start.p0(i64 4, ptr nonnull %2) #11
  %3 = getelementptr inbounds nuw i8, ptr %0, i64 40
  %4 = load ptr, ptr %3, align 8, !tbaa !69
  %5 = load ptr, ptr %0, align 8, !tbaa !22
  %6 = icmp ult ptr %4, %5
  br i1 %6, label %7, label %serialize_ru124.exit.thread, !prof !23

7:                                                ; preds = %1
  %8 = load i8, ptr %4, align 1, !tbaa !14
  %9 = zext i8 %8 to i32
  store i32 %9, ptr %2, align 4, !tbaa !67
  %10 = icmp ugt i8 %8, -33
  br i1 %10, label %serialize_ru124.exit, label %serialize_ru124.exit.thread4, !prof !27

serialize_ru124.exit:                             ; preds = %7
  %11 = getelementptr inbounds nuw i8, ptr %4, i64 1
  %12 = call fastcc ptr @serialize_ru124_(ptr noundef nonnull %11, ptr noundef nonnull %5, ptr noundef nonnull %2)
  %.not = icmp eq ptr %12, null
  br i1 %.not, label %serialize_ru124.exit.thread, label %thread-pre-split

thread-pre-split:                                 ; preds = %serialize_ru124.exit
  %.pr = load i32, ptr %2, align 4, !tbaa !67
  br label %serialize_ru124.exit.thread4

serialize_ru124.exit.thread4:                     ; preds = %7, %thread-pre-split
  %13 = phi i32 [ %.pr, %thread-pre-split ], [ %9, %7 ]
  %14 = icmp ult i32 %13, 19
  br i1 %14, label %switch.lookup, label %serialize_ru124.exit.thread

switch.lookup:                                    ; preds = %serialize_ru124.exit.thread4
  %15 = zext nneg i32 %13 to i64
  %switch.gep = getelementptr inbounds nuw [19 x i32], ptr @switch.table.lj_serialize_peektype, i64 0, i64 %15
  %switch.load = load i32, ptr %switch.gep, align 4
  br label %serialize_ru124.exit.thread

serialize_ru124.exit.thread:                      ; preds = %serialize_ru124.exit.thread4, %switch.lookup, %1, %serialize_ru124.exit
  %.0 = phi i32 [ 0, %serialize_ru124.exit ], [ 0, %1 ], [ %switch.load, %switch.lookup ], [ 4, %serialize_ru124.exit.thread4 ]
  call void @llvm.lifetime.end.p0(i64 4, ptr nonnull %2) #11
  ret i32 %.0
}